; Function Attrs: mustprogress nofree norecurse nosync nounwind willreturn memory(argmem: readwrite) uwtable
define void @_ZN8WasmEdge4Host4WASI5INode5stdInEv(ptr dead_on_unwind noalias writable sret(%"class.WasmEdge::Host::WASI::INode") align 8 captures(none) initializes((0, 4), (152, 153), (160, 200)) %0) local_unnamed_addr #7 align 2 {
  store i32 0, ptr %0, align 8
  %2 = getelementptr inbounds nuw i8, ptr %0, i64 4
  %3 = load i8, ptr %2, align 4
  %4 = and i8 %3, -4
  %5 = or disjoint i8 %4, 1
  store i8 %5, ptr %2, align 4
  %6 = getelementptr inbounds nuw i8, ptr %0, i64 152
  store i8 0, ptr %6, align 8
  %7 = getelementptr inbounds nuw i8, ptr %0, i64 160
  tail call void @llvm.memset.p0.i64(ptr noundef nonnull align 8 dereferenceable(40) %7, i8 0, i64 40, i1 false)
  ret void
}